target datalayout = "e-m:e-p270:32:32-p271:32:32-p272:64:64-i64:64-i128:128-f80:128-n8:16:32:64-S128"
target triple = "x86_64-pc-linux-gnu"

; Function Attrs: inlinehint nounwind uwtable
define internal zeroext i1 @FormatHasAlpha(i32 noundef %0) #7 {
  %2 = alloca i1, align 1
  %3 = alloca i32, align 4
  store i32 %0, ptr %3, align 4
  %4 = load i32, ptr %3, align 4
  switch i32 %4, label %7 [
    i32 75, label %5
    i32 76, label %5
    i32 89, label %5
    i32 90, label %5
    i32 103, label %5
    i32 104, label %5
    i32 71, label %5
    i32 72, label %5
    i32 73, label %5
    i32 74, label %5
    i32 85, label %5
    i32 86, label %5
    i32 87, label %5
    i32 88, label %5
    i32 99, label %5
    i32 100, label %5
    i32 101, label %5
    i32 102, label %5
    i32 68, label %5
    i32 69, label %5
    i32 70, label %5
    i32 82, label %5
    i32 83, label %5
    i32 84, label %5
    i32 96, label %5
    i32 97, label %5
    i32 98, label %5
    i32 66, label %5
    i32 67, label %5
    i32 80, label %5
    i32 81, label %5
    i32 94, label %5
    i32 95, label %5
    i32 64, label %5
    i32 65, label %5
    i32 78, label %5
    i32 79, label %5
    i32 92, label %5
    i32 93, label %5
    i32 63, label %5
    i32 77, label %5
    i32 91, label %5
    i32 13, label %6
    i32 14, label %6
    i32 15, label %6
    i32 18, label %6
    i32 54, label %6
    i32 55, label %6
    i32 56, label %6
    i32 57, label %6
    i32 4, label %6
    i32 12, label %6
    i32 10, label %6
    i32 11, label %6
    i32 8, label %6
    i32 7, label %6
    i32 1, label %6
    i32 23, label %6
    i32 26, label %6
    i32 29, label %6
    i32 32, label %6
    i32 36, label %6
    i32 39, label %6
    i32 42, label %6
    i32 45, label %6
    i32 48, label %6
    i32 51, label %6
    i32 52, label %6
    i32 53, label %6
  ]

5:                                                ; preds = %1, %1, %1, %1, %1, %1, %1, %1, %1, %1, %1, %1, %1, %1, %1, %1, %1, %1, %1, %1, %1, %1, %1, %1, %1, %1, %1, %1, %1, %1, %1, %1, %1, %1, %1, %1, %1, %1, %1, %1, %1, %1
  store i1 true, ptr %2, align 1
  br label %8

6:                                                ; preds = %1, %1, %1, %1, %1, %1, %1, %1, %1, %1, %1, %1, %1, %1, %1, %1, %1, %1, %1, %1, %1, %1, %1, %1, %1, %1, %1
  store i1 true, ptr %2, align 1
  br label %8

7:                                                ; preds = %1
  store i1 false, ptr %2, align 1
  br label %8

8:                                                ; preds = %7, %6, %5
  %9 = load i1, ptr %2, align 1
  ret i1 %9
}