; Function Attrs: inlinehint mustprogress nofree norecurse nosync nounwind willreturn memory(none) uwtable
define internal fastcc noundef zeroext i1 @FormatHasAlpha(i32 noundef %0) unnamed_addr #8 {
  switch i32 %0, label %2 [
    i32 75, label %3
    i32 76, label %3
    i32 89, label %3
    i32 90, label %3
    i32 103, label %3
    i32 104, label %3
    i32 71, label %3
    i32 72, label %3
    i32 73, label %3
    i32 74, label %3
    i32 85, label %3
    i32 86, label %3
    i32 87, label %3
    i32 88, label %3
    i32 99, label %3
    i32 100, label %3
    i32 101, label %3
    i32 102, label %3
    i32 68, label %3
    i32 69, label %3
    i32 70, label %3
    i32 82, label %3
    i32 83, label %3
    i32 84, label %3
    i32 96, label %3
    i32 97, label %3
    i32 98, label %3
    i32 66, label %3
    i32 67, label %3
    i32 80, label %3
    i32 81, label %3
    i32 94, label %3
    i32 95, label %3
    i32 64, label %3
    i32 65, label %3
    i32 78, label %3
    i32 79, label %3
    i32 92, label %3
    i32 93, label %3
    i32 63, label %3
    i32 77, label %3
    i32 91, label %3
    i32 13, label %3
    i32 14, label %3
    i32 15, label %3
    i32 18, label %3
    i32 54, label %3
    i32 55, label %3
    i32 56, label %3
    i32 57, label %3
    i32 4, label %3
    i32 12, label %3
    i32 10, label %3
    i32 11, label %3
    i32 8, label %3
    i32 7, label %3
    i32 1, label %3
    i32 23, label %3
    i32 26, label %3
    i32 29, label %3
    i32 32, label %3
    i32 36, label %3
    i32 39, label %3
    i32 42, label %3
    i32 45, label %3
    i32 48, label %3
    i32 51, label %3
    i32 52, label %3
    i32 53, label %3
  ]

2:                                                ; preds = %1
  br label %3

3:                                                ; preds = %1, %1, %1, %1, %1, %1, %1, %1, %1, %1, %1, %1, %1, %1, %1, %1, %1, %1, %1, %1, %1, %1, %1, %1, %1, %1, %1, %1, %1, %1, %1, %1, %1, %1, %1, %1, %1, %1, %1, %1, %1, %1, %1, %1, %1, %1, %1, %1, %1, %1, %1, %1, %1, %1, %1, %1, %1, %1, %1, %1, %1, %1, %1, %1, %1, %1, %1, %1, %1, %2
  %.0 = phi i1 [ false, %2 ], [ true, %1 ], [ true, %1 ], [ true, %1 ], [ true, %1 ], [ true, %1 ], [ true, %1 ], [ true, %1 ], [ true, %1 ], [ true, %1 ], [ true, %1 ], [ true, %1 ], [ true, %1 ], [ true, %1 ], [ true, %1 ], [ true, %1 ], [ true, %1 ], [ true, %1 ], [ true, %1 ], [ true, %1 ], [ true, %1 ], [ true, %1 ], [ true, %1 ], [ true, %1 ], [ true, %1 ], [ true, %1 ], [ true, %1 ], [ true, %1 ], [ true, %1 ], [ true, %1 ], [ true, %1 ], [ true, %1 ], [ true, %1 ], [ true, %1 ], [ true, %1 ], [ true, %1 ], [ true, %1 ], [ true, %1 ], [ true, %1 ], [ true, %1 ], [ true, %1 ], [ true, %1 ], [ true, %1 ], [ true, %1 ], [ true, %1 ], [ true, %1 ], [ true, %1 ], [ true, %1 ], [ true, %1 ], [ true, %1 ], [ true, %1 ], [ true, %1 ], [ true, %1 ], [ true, %1 ], [ true, %1 ], [ true, %1 ], [ true, %1 ], [ true, %1 ], [ true, %1 ], [ true, %1 ], [ true, %1 ], [ true, %1 ], [ true, %1 ], [ true, %1 ], [ true, %1 ], [ true, %1 ], [ true, %1 ], [ true, %1 ], [ true, %1 ], [ true, %1 ]
  ret i1 %.0
}